target datalayout = "e-m:e-p270:32:32-p271:32:32-p272:64:64-i64:64-i128:128-f80:128-n8:16:32:64-S128"
target triple = "x86_64-unknown-linux-gnu"

%struct.BlockCopyState = type { ptr, ptr, i64, i64, i64, i32, %struct.CoMutex, i64, i32, %struct.BlockReqList, %struct.anon.0, i8, ptr, ptr, ptr, %struct.RateLimit }
%struct.CoMutex = type { i32, ptr, %struct.anon, %struct.anon, i32, i32, ptr }
%struct.anon = type { ptr }
%struct.BlockReqList = type { ptr }
%struct.anon.0 = type { ptr }
%struct.RateLimit = type { %struct.QemuMutex, i64, i64, i64, i64, i64 }
%struct.QemuMutex = type { %union.pthread_mutex_t, i8 }
%union.pthread_mutex_t = type { %struct.__pthread_mutex_s }
%struct.__pthread_mutex_s = type { i32, i32, i32, i32, i32, i16, i16, %struct.__pthread_internal_list }
%struct.__pthread_internal_list = type { ptr, ptr }
%struct.BdrvChild = type { ptr, ptr, ptr, i32, ptr, i64, i64, i8, i8, %struct.anon.1, %struct.anon.2 }
%struct.anon.1 = type { ptr, ptr }
%struct.anon.2 = type { ptr, ptr }

@.str.1 = private unnamed_addr constant [27 x i8] c"../qemu/block/block-copy.c\00", align 1
@__func__.block_copy_block_status = private unnamed_addr constant [24 x i8] c"block_copy_block_status\00", align 1

; Function Attrs: nounwind sspstrong uwtable
define internal i32 @block_copy_block_status(ptr noundef %s, i64 noundef %offset, i64 noundef %bytes, ptr noundef %pnum) #0 {
entry:
  %s.addr = alloca ptr, align 8
  %offset.addr = alloca i64, align 8
  %bytes.addr = alloca i64, align 8
  %pnum.addr = alloca ptr, align 8
  %num = alloca i64, align 8
  %base = alloca ptr, align 8
  %ret = alloca i32, align 4
  %tmp = alloca i8, align 1
  %atomic-temp = alloca i8, align 1
  store ptr %s, ptr %s.addr, align 8
  store i64 %offset, ptr %offset.addr, align 8
  store i64 %bytes, ptr %bytes.addr, align 8
  store ptr %pnum, ptr %pnum.addr, align 8
  br label %while.cond

while.cond:                                       ; preds = %do.end, %entry
  br i1 false, label %while.body, label %while.end

while.body:                                       ; preds = %while.cond
  br label %do.body

do.body:                                          ; preds = %while.body
  call void @g_assertion_message_expr(ptr noundef null, ptr noundef @.str.1, i32 noundef 602, ptr noundef @__func__.block_copy_block_status, ptr noundef null) #10
  unreachable

do.end:                                           ; No predecessors!
  br label %while.cond

while.end:                                        ; preds = %while.cond
  %0 = load ptr, ptr %s.addr, align 8
  %skip_unallocated = getelementptr inbounds %struct.BlockCopyState, ptr %0, i32 0, i32 11
  %1 = load atomic i8, ptr %skip_unallocated monotonic, align 8
  store i8 %1, ptr %atomic-temp, align 1
  %2 = load i8, ptr %atomic-temp, align 1
  %tobool = trunc i8 %2 to i1
  %frombool = zext i1 %tobool to i8
  store i8 %frombool, ptr %tmp, align 1
  %3 = load i8, ptr %tmp, align 1
  %tobool1 = trunc i8 %3 to i1
  br i1 %tobool1, label %if.then, label %if.else

if.then:                                          ; preds = %while.end
  %4 = load ptr, ptr %s.addr, align 8
  %source = getelementptr inbounds %struct.BlockCopyState, ptr %4, i32 0, i32 0
  %5 = load ptr, ptr %source, align 8
  %bs = getelementptr inbounds %struct.BdrvChild, ptr %5, i32 0, i32 0
  %6 = load ptr, ptr %bs, align 8
  %call = call ptr @bdrv_backing_chain_next(ptr noundef %6)
  store ptr %call, ptr %base, align 8
  br label %if.end

if.else:                                          ; preds = %while.end
  store ptr null, ptr %base, align 8
  br label %if.end

if.end:                                           ; preds = %if.else, %if.then
  %7 = load ptr, ptr %s.addr, align 8
  %source2 = getelementptr inbounds %struct.BlockCopyState, ptr %7, i32 0, i32 0
  %8 = load ptr, ptr %source2, align 8
  %bs3 = getelementptr inbounds %struct.BdrvChild, ptr %8, i32 0, i32 0
  %9 = load ptr, ptr %bs3, align 8
  %10 = load ptr, ptr %base, align 8
  %11 = load i64, ptr %offset.addr, align 8
  %12 = load i64, ptr %bytes.addr, align 8
  %call4 = call i32 @bdrv_co_block_status_above(ptr noundef %9, ptr noundef %10, i64 noundef %11, i64 noundef %12, ptr noundef %num, ptr noundef null, ptr noundef null)
  store i32 %call4, ptr %ret, align 4
  %13 = load i32, ptr %ret, align 4
  %cmp = icmp slt i32 %13, 0
  br i1 %cmp, label %if.then6, label %lor.lhs.false

lor.lhs.false:                                    ; preds = %if.end
  %14 = load i64, ptr %num, align 8
  %15 = load ptr, ptr %s.addr, align 8
  %cluster_size = getelementptr inbounds %struct.BlockCopyState, ptr %15, i32 0, i32 2
  %16 = load i64, ptr %cluster_size, align 8
  %cmp5 = icmp slt i64 %14, %16
  br i1 %cmp5, label %if.then6, label %if.else8

if.then6:                                         ; preds = %lor.lhs.false, %if.end
  %17 = load ptr, ptr %s.addr, align 8
  %cluster_size7 = getelementptr inbounds %struct.BlockCopyState, ptr %17, i32 0, i32 2
  %18 = load i64, ptr %cluster_size7, align 8
  store i64 %18, ptr %num, align 8
  store i32 17, ptr %ret, align 4
  br label %if.end21

if.else8:                                         ; preds = %lor.lhs.false
  %19 = load i64, ptr %offset.addr, align 8
  %20 = load i64, ptr %num, align 8
  %add = add i64 %19, %20
  %21 = load ptr, ptr %s.addr, align 8
  %len = getelementptr inbounds %struct.BlockCopyState, ptr %21, i32 0, i32 4
  %22 = load i64, ptr %len, align 8
  %cmp9 = icmp eq i64 %add, %22
  br i1 %cmp9, label %if.then10, label %if.else15

if.then10:                                        ; preds = %if.else8
  %23 = load i64, ptr %num, align 8
  %24 = load ptr, ptr %s.addr, align 8
  %cluster_size11 = getelementptr inbounds %struct.BlockCopyState, ptr %24, i32 0, i32 2
  %25 = load i64, ptr %cluster_size11, align 8
  %add12 = add i64 %23, %25
  %sub = sub i64 %add12, 1
  %26 = load ptr, ptr %s.addr, align 8
  %cluster_size13 = getelementptr inbounds %struct.BlockCopyState, ptr %26, i32 0, i32 2
  %27 = load i64, ptr %cluster_size13, align 8
  %div = sdiv i64 %sub, %27
  %28 = load ptr, ptr %s.addr, align 8
  %cluster_size14 = getelementptr inbounds %struct.BlockCopyState, ptr %28, i32 0, i32 2
  %29 = load i64, ptr %cluster_size14, align 8
  %mul = mul i64 %div, %29
  store i64 %mul, ptr %num, align 8
  br label %if.end20

if.else15:                                        ; preds = %if.else8
  %30 = load i64, ptr %num, align 8
  %31 = load ptr, ptr %s.addr, align 8
  %cluster_size16 = getelementptr inbounds %struct.BlockCopyState, ptr %31, i32 0, i32 2
  %32 = load i64, ptr %cluster_size16, align 8
  %div17 = sdiv i64 %30, %32
  %33 = load ptr, ptr %s.addr, align 8
  %cluster_size18 = getelementptr inbounds %struct.BlockCopyState, ptr %33, i32 0, i32 2
  %34 = load i64, ptr %cluster_size18, align 8
  %mul19 = mul i64 %div17, %34
  store i64 %mul19, ptr %num, align 8
  br label %if.end20

if.end20:                                         ; preds = %if.else15, %if.then10
  br label %if.end21

if.end21:                                         ; preds = %if.end20, %if.then6
  %35 = load i64, ptr %num, align 8
  %36 = load ptr, ptr %pnum.addr, align 8
  store i64 %35, ptr %36, align 8
  %37 = load i32, ptr %ret, align 4
  ret i32 %37
}