; Function Attrs: nounwind sspstrong uwtable
define internal range(i32 0, -2147483648) i32 @block_copy_block_status(ptr noundef readonly captures(none) %s, i64 noundef %offset, i64 noundef %bytes, ptr noundef writeonly captures(none) initializes((0, 8)) %pnum) #0 {
entry:
  %num = alloca i64, align 8
  %skip_unallocated = getelementptr inbounds nuw i8, ptr %s, i64 128
  %0 = load atomic i8, ptr %skip_unallocated monotonic, align 8
  %tobool = trunc i8 %0 to i1
  br i1 %tobool, label %if.then, label %if.end

if.then:                                          ; preds = %entry
  %1 = load ptr, ptr %s, align 8
  %2 = load ptr, ptr %1, align 8
  %call = tail call ptr @bdrv_backing_chain_next(ptr noundef %2) #14
  br label %if.end

if.end:                                           ; preds = %entry, %if.then
  %base.0 = phi ptr [ %call, %if.then ], [ null, %entry ]
  %3 = load ptr, ptr %s, align 8
  %4 = load ptr, ptr %3, align 8
  %call4 = call i32 @bdrv_co_block_status_above(ptr noundef %4, ptr noundef %base.0, i64 noundef %offset, i64 noundef %bytes, ptr noundef nonnull %num, ptr noundef null, ptr noundef null) #14
  %cmp = icmp slt i32 %call4, 0
  br i1 %cmp, label %if.end.if.then6_crit_edge, label %lor.lhs.false

if.end.if.then6_crit_edge:                        ; preds = %if.end
  %cluster_size7.phi.trans.insert = getelementptr inbounds nuw i8, ptr %s, i64 16
  %.pre = load i64, ptr %cluster_size7.phi.trans.insert, align 8
  br label %if.end21

lor.lhs.false:                                    ; preds = %if.end
  %5 = load i64, ptr %num, align 8
  %.fr = freeze i64 %5
  %cluster_size = getelementptr inbounds nuw i8, ptr %s, i64 16
  %6 = load i64, ptr %cluster_size, align 8
  %.fr14 = freeze i64 %6
  %cmp5 = icmp slt i64 %.fr, %.fr14
  br i1 %cmp5, label %if.end21, label %if.else8

if.else8:                                         ; preds = %lor.lhs.false
  %add = add i64 %.fr, %offset
  %len = getelementptr inbounds nuw i8, ptr %s, i64 32
  %7 = load i64, ptr %len, align 8
  %cmp9 = icmp eq i64 %add, %7
  br i1 %cmp9, label %if.then10, label %if.else15

if.then10:                                        ; preds = %if.else8
  %add12 = add i64 %.fr, -1
  %sub = add i64 %add12, %.fr14
  %8 = srem i64 %sub, %.fr14
  %mul = sub nsw i64 %sub, %8
  br label %if.end21

if.else15:                                        ; preds = %if.else8
  %9 = srem i64 %.fr, %.fr14
  %mul19 = sub nsw i64 %.fr, %9
  br label %if.end21

if.end21:                                         ; preds = %lor.lhs.false, %if.end.if.then6_crit_edge, %if.then10, %if.else15
  %10 = phi i64 [ %mul, %if.then10 ], [ %mul19, %if.else15 ], [ %.pre, %if.end.if.then6_crit_edge ], [ %.fr14, %lor.lhs.false ]
  %ret.0 = phi i32 [ %call4, %if.then10 ], [ %call4, %if.else15 ], [ 17, %if.end.if.then6_crit_edge ], [ 17, %lor.lhs.false ]
  store i64 %10, ptr %pnum, align 8
  ret i32 %ret.0
}